; Function Attrs: mustprogress uwtable
define internal noundef nonnull ptr @_ZN7testing8internal15TestFactoryImplIN4absl18container_internal12_GLOBAL__N_136PropagateOnAll_InsertDecomposes_TestEE10CreateTestEv(ptr nocapture nonnull readnone align 8 %this) unnamed_addr #3 align 2 personality ptr @__gxx_personality_v0 {
entry:
  %call = tail call noalias noundef nonnull dereferenceable(120) ptr @_Znwm(i64 noundef 120) #29
  invoke fastcc void @_ZN4absl18container_internal12_GLOBAL__N_113PropagateTestILi7EEC2Ev(ptr noundef nonnull align 8 dereferenceable(120) %call)
          to label %invoke.cont unwind label %lpad

invoke.cont:                                      ; preds = %entry
  store ptr getelementptr inbounds ({ [8 x ptr] }, ptr @_ZTVN4absl18container_internal12_GLOBAL__N_136PropagateOnAll_InsertDecomposes_TestE, i64 0, i32 0, i64 2), ptr %call, align 8
  ret ptr %call

lpad:                                             ; preds = %entry
  %0 = landingpad { ptr, i32 }
          cleanup
  tail call void @_ZdlPv(ptr noundef nonnull %call) #28
  resume { ptr, i32 } %0
}